target datalayout = "e-m:e-p270:32:32-p271:32:32-p272:64:64-i64:64-i128:128-f80:128-n8:16:32:64-S128"
target triple = "x86_64-pc-linux-gnu"

%struct.strbuf = type { i64, i64, ptr }
%struct.object_id = type { [32 x i8], i32 }

@the_repository = external global ptr, align 8
@guess_remote = internal global i32 0, align 4
@__const.dwim_branch.ref = private unnamed_addr constant %struct.strbuf { i64 0, i64 0, ptr @strbuf_slopbuf }, align 8

; Function Attrs: inlinehint nounwind uwtable
define internal i32 @git_is_dir_sep(i32 noundef %0) #3 {
  %2 = alloca i32, align 4
  store i32 %0, ptr %2, align 4, !tbaa !4
  %3 = load i32, ptr %2, align 4, !tbaa !4
  %4 = icmp eq i32 %3, 47
  %5 = zext i1 %4 to i32
  ret i32 %5
}

; Function Attrs: nounwind uwtable
define internal ptr @worktree_basename(ptr noundef %0, ptr noundef %1) #0 {
  %3 = alloca ptr, align 8
  %4 = alloca ptr, align 8
  %5 = alloca ptr, align 8
  %6 = alloca i32, align 4
  store ptr %0, ptr %3, align 8, !tbaa !11
  store ptr %1, ptr %4, align 8, !tbaa !75
  call void @llvm.lifetime.start.p0(i64 8, ptr %5) #11
  call void @llvm.lifetime.start.p0(i64 4, ptr %6) #11
  %7 = load ptr, ptr %3, align 8, !tbaa !11
  %8 = call i64 @strlen(ptr noundef %7) #13
  %9 = trunc i64 %8 to i32
  store i32 %9, ptr %6, align 4, !tbaa !4
  br label %10

10:                                               ; preds = %25, %2
  %11 = load i32, ptr %6, align 4, !tbaa !4
  %12 = icmp ne i32 %11, 0
  br i1 %12, label %13, label %23

13:                                               ; preds = %10
  %14 = load ptr, ptr %3, align 8, !tbaa !11
  %15 = load i32, ptr %6, align 4, !tbaa !4
  %16 = sub nsw i32 %15, 1
  %17 = sext i32 %16 to i64
  %18 = getelementptr inbounds i8, ptr %14, i64 %17
  %19 = load i8, ptr %18, align 1, !tbaa !67
  %20 = sext i8 %19 to i32
  %21 = call i32 @git_is_dir_sep(i32 noundef %20)
  %22 = icmp ne i32 %21, 0
  br label %23

23:                                               ; preds = %13, %10
  %24 = phi i1 [ false, %10 ], [ %22, %13 ]
  br i1 %24, label %25, label %28

25:                                               ; preds = %23
  %26 = load i32, ptr %6, align 4, !tbaa !4
  %27 = add nsw i32 %26, -1
  store i32 %27, ptr %6, align 4, !tbaa !4
  br label %10, !llvm.loop !77

28:                                               ; preds = %23
  %29 = load ptr, ptr %3, align 8, !tbaa !11
  %30 = load i32, ptr %6, align 4, !tbaa !4
  %31 = sext i32 %30 to i64
  %32 = getelementptr inbounds i8, ptr %29, i64 %31
  %33 = getelementptr inbounds i8, ptr %32, i64 -1
  store ptr %33, ptr %5, align 8, !tbaa !11
  br label %34

34:                                               ; preds = %48, %28
  %35 = load ptr, ptr %5, align 8, !tbaa !11
  %36 = load ptr, ptr %3, align 8, !tbaa !11
  %37 = icmp ugt ptr %35, %36
  br i1 %37, label %38, label %51

38:                                               ; preds = %34
  %39 = load ptr, ptr %5, align 8, !tbaa !11
  %40 = load i8, ptr %39, align 1, !tbaa !67
  %41 = sext i8 %40 to i32
  %42 = call i32 @git_is_dir_sep(i32 noundef %41)
  %43 = icmp ne i32 %42, 0
  br i1 %43, label %44, label %47

44:                                               ; preds = %38
  %45 = load ptr, ptr %5, align 8, !tbaa !11
  %46 = getelementptr inbounds nuw i8, ptr %45, i32 1
  store ptr %46, ptr %5, align 8, !tbaa !11
  br label %51

47:                                               ; preds = %38
  br label %48

48:                                               ; preds = %47
  %49 = load ptr, ptr %5, align 8, !tbaa !11
  %50 = getelementptr inbounds i8, ptr %49, i32 -1
  store ptr %50, ptr %5, align 8, !tbaa !11
  br label %34, !llvm.loop !78

51:                                               ; preds = %44, %34
  %52 = load i32, ptr %6, align 4, !tbaa !4
  %53 = load ptr, ptr %4, align 8, !tbaa !75
  store i32 %52, ptr %53, align 4, !tbaa !4
  %54 = load ptr, ptr %5, align 8, !tbaa !11
  call void @llvm.lifetime.end.p0(i64 4, ptr %6) #11
  call void @llvm.lifetime.end.p0(i64 8, ptr %5) #11
  ret ptr %54
}

; Function Attrs: nounwind uwtable
define internal ptr @dwim_branch(ptr noundef %0, ptr noundef %1) #0 {
  %3 = alloca ptr, align 8
  %4 = alloca ptr, align 8
  %5 = alloca ptr, align 8
  %6 = alloca i32, align 4
  %7 = alloca i32, align 4
  %8 = alloca ptr, align 8
  %9 = alloca ptr, align 8
  %10 = alloca %struct.strbuf, align 8
  %11 = alloca i32, align 4
  %12 = alloca %struct.object_id, align 4
  %13 = alloca ptr, align 8
  store ptr %0, ptr %4, align 8, !tbaa !11
  store ptr %1, ptr %5, align 8, !tbaa !8
  call void @llvm.lifetime.start.p0(i64 4, ptr %6) #11
  call void @llvm.lifetime.start.p0(i64 4, ptr %7) #11
  call void @llvm.lifetime.start.p0(i64 8, ptr %8) #11
  %14 = load ptr, ptr %4, align 8, !tbaa !11
  %15 = call ptr @worktree_basename(ptr noundef %14, ptr noundef %6)
  store ptr %15, ptr %8, align 8, !tbaa !11
  call void @llvm.lifetime.start.p0(i64 8, ptr %9) #11
  %16 = load ptr, ptr %8, align 8, !tbaa !11
  %17 = load i32, ptr %6, align 4, !tbaa !4
  %18 = sext i32 %17 to i64
  %19 = call ptr @xstrndup(ptr noundef %16, i64 noundef %18)
  store ptr %19, ptr %9, align 8, !tbaa !11
  call void @llvm.lifetime.start.p0(i64 24, ptr %10) #11
  call void @llvm.memcpy.p0.p0.i64(ptr align 8 %10, ptr align 8 @__const.dwim_branch.ref, i64 24, i1 false)
  %20 = load ptr, ptr %9, align 8, !tbaa !11
  %21 = call i32 @check_branch_ref(ptr noundef %10, ptr noundef %20)
  %22 = icmp ne i32 %21, 0
  br i1 %22, label %30, label %23

23:                                               ; preds = %2
  %24 = load ptr, ptr @the_repository, align 8, !tbaa !13
  %25 = call ptr @get_main_ref_store(ptr noundef %24)
  %26 = getelementptr inbounds nuw %struct.strbuf, ptr %10, i32 0, i32 2
  %27 = load ptr, ptr %26, align 8, !tbaa !55
  %28 = call i32 @refs_ref_exists(ptr noundef %25, ptr noundef %27)
  %29 = icmp ne i32 %28, 0
  br label %30

30:                                               ; preds = %23, %2
  %31 = phi i1 [ false, %2 ], [ %29, %23 ]
  %32 = zext i1 %31 to i32
  store i32 %32, ptr %7, align 4, !tbaa !4
  call void @strbuf_release(ptr noundef %10)
  %33 = load i32, ptr %7, align 4, !tbaa !4
  %34 = icmp ne i32 %33, 0
  br i1 %34, label %35, label %37

35:                                               ; preds = %30
  %36 = load ptr, ptr %9, align 8, !tbaa !11
  store ptr %36, ptr %3, align 8
  store i32 1, ptr %11, align 4
  br label %48

37:                                               ; preds = %30
  %38 = load ptr, ptr %9, align 8, !tbaa !11
  %39 = load ptr, ptr %5, align 8, !tbaa !8
  store ptr %38, ptr %39, align 8, !tbaa !11
  %40 = load i32, ptr @guess_remote, align 4, !tbaa !4
  %41 = icmp ne i32 %40, 0
  br i1 %41, label %42, label %47

42:                                               ; preds = %37
  call void @llvm.lifetime.start.p0(i64 36, ptr %12) #11
  call void @llvm.lifetime.start.p0(i64 8, ptr %13) #11
  %43 = load ptr, ptr %5, align 8, !tbaa !8
  %44 = load ptr, ptr %43, align 8, !tbaa !11
  %45 = call ptr @unique_tracking_name(ptr noundef %44, ptr noundef %12, ptr noundef null)
  store ptr %45, ptr %13, align 8, !tbaa !11
  %46 = load ptr, ptr %13, align 8, !tbaa !11
  store ptr %46, ptr %3, align 8
  store i32 1, ptr %11, align 4
  call void @llvm.lifetime.end.p0(i64 8, ptr %13) #11
  call void @llvm.lifetime.end.p0(i64 36, ptr %12) #11
  br label %48

47:                                               ; preds = %37
  store ptr null, ptr %3, align 8
  store i32 1, ptr %11, align 4
  br label %48

48:                                               ; preds = %47, %42, %35
  call void @llvm.lifetime.end.p0(i64 24, ptr %10) #11
  call void @llvm.lifetime.end.p0(i64 8, ptr %9) #11
  call void @llvm.lifetime.end.p0(i64 8, ptr %8) #11
  call void @llvm.lifetime.end.p0(i64 4, ptr %7) #11
  call void @llvm.lifetime.end.p0(i64 4, ptr %6) #11
  %49 = load ptr, ptr %3, align 8
  ret ptr %49
}