; Function Attrs: nounwind uwtable
define internal fastcc ptr @dwim_branch(ptr noundef %0, ptr noundef nonnull writeonly captures(none) %1) unnamed_addr #0 {
  %3 = alloca %struct.strbuf, align 8
  %4 = alloca %struct.object_id, align 4
  %5 = tail call i64 @strlen(ptr noundef nonnull readonly dereferenceable(1) %0) #20
  %invariant.gep.i = getelementptr i8, ptr %0, i64 -1
  %6 = and i64 %5, 4294967295
  %.not19.i = icmp eq i64 %6, 0
  br i1 %.not19.i, label %.critedge.i, label %.lr.ph.preheader.i

.lr.ph.preheader.i:                               ; preds = %2
  %sext.i = shl i64 %5, 32
  %7 = ashr exact i64 %sext.i, 32
  br label %.lr.ph.i

.lr.ph.i:                                         ; preds = %9, %.lr.ph.preheader.i
  %indvars.iv.i = phi i64 [ %7, %.lr.ph.preheader.i ], [ %indvars.iv.next.i, %9 ]
  %gep.i = getelementptr i8, ptr %invariant.gep.i, i64 %indvars.iv.i
  %8 = load i8, ptr %gep.i, align 1, !tbaa !53
  %.not17.i = icmp eq i8 %8, 47
  br i1 %.not17.i, label %9, label %.critedge.loopexit.split.loop.exit24.i

9:                                                ; preds = %.lr.ph.i
  %indvars.iv.next.i = add nsw i64 %indvars.iv.i, -1
  %.not.i = icmp eq i64 %indvars.iv.next.i, 0
  br i1 %.not.i, label %.critedge.i, label %.lr.ph.i, !llvm.loop !54

.critedge.loopexit.split.loop.exit24.i:           ; preds = %.lr.ph.i
  %sext = shl i64 %indvars.iv.i, 32
  %10 = ashr exact i64 %sext, 32
  br label %.critedge.i

.critedge.i:                                      ; preds = %9, %.critedge.loopexit.split.loop.exit24.i, %2
  %.0.lcssa.i = phi i64 [ 0, %2 ], [ %10, %.critedge.loopexit.split.loop.exit24.i ], [ 0, %9 ]
  %11 = getelementptr inbounds i8, ptr %0, i64 %.0.lcssa.i
  br label %12

12:                                               ; preds = %14, %.critedge.i
  %.pn.i = phi ptr [ %11, %.critedge.i ], [ %.014.i, %14 ]
  %.014.i = getelementptr inbounds i8, ptr %.pn.i, i64 -1
  %13 = icmp ugt ptr %.014.i, %0
  br i1 %13, label %14, label %worktree_basename.exit

14:                                               ; preds = %12
  %15 = load i8, ptr %.014.i, align 1, !tbaa !53
  %.not18.i = icmp eq i8 %15, 47
  br i1 %.not18.i, label %worktree_basename.exit, label %12, !llvm.loop !56

worktree_basename.exit:                           ; preds = %12, %14
  %.1.i = phi ptr [ %.014.i, %12 ], [ %.pn.i, %14 ]
  %16 = tail call ptr @xstrndup(ptr noundef nonnull %.1.i, i64 noundef %.0.lcssa.i) #18
  call void @llvm.lifetime.start.p0(i64 24, ptr nonnull %3) #18
  call void @llvm.memcpy.p0.p0.i64(ptr noundef nonnull align 8 dereferenceable(24) %3, ptr noundef nonnull align 8 dereferenceable(24) @__const.delete_git_work_tree.sb, i64 24, i1 false)
  %17 = call i32 @check_branch_ref(ptr noundef nonnull %3, ptr noundef %16) #18
  %.not = icmp eq i32 %17, 0
  br i1 %.not, label %18, label %.critedge

18:                                               ; preds = %worktree_basename.exit
  %19 = load ptr, ptr @the_repository, align 8, !tbaa !17
  %20 = call ptr @get_main_ref_store(ptr noundef %19) #18
  %21 = getelementptr inbounds nuw i8, ptr %3, i64 16
  %22 = load ptr, ptr %21, align 8, !tbaa !50
  %23 = call i32 @refs_ref_exists(ptr noundef %20, ptr noundef %22) #18
  %.not10 = icmp eq i32 %23, 0
  call void @strbuf_release(ptr noundef nonnull %3) #18
  br i1 %.not10, label %24, label %28

.critedge:                                        ; preds = %worktree_basename.exit
  call void @strbuf_release(ptr noundef nonnull %3) #18
  br label %24

24:                                               ; preds = %.critedge, %18
  store ptr %16, ptr %1, align 8, !tbaa !37
  %25 = load i32, ptr @guess_remote, align 4, !tbaa !38
  %.not9 = icmp eq i32 %25, 0
  br i1 %.not9, label %28, label %26

26:                                               ; preds = %24
  call void @llvm.lifetime.start.p0(i64 36, ptr nonnull %4) #18
  %27 = call ptr @unique_tracking_name(ptr noundef %16, ptr noundef nonnull %4, ptr noundef null) #18
  call void @llvm.lifetime.end.p0(i64 36, ptr nonnull %4) #18
  br label %28

28:                                               ; preds = %24, %18, %26
  %.0 = phi ptr [ %27, %26 ], [ %16, %18 ], [ null, %24 ]
  call void @llvm.lifetime.end.p0(i64 24, ptr nonnull %3) #18
  ret ptr %.0
}